(lp0
Vrottweiler
p1
aVminiature-pinscher
p2
aVnederlandse-kooikerhondje
p3
aVamerican-leopard-hound
p4
aVspinone-italiano
p5
aVwelsh-terrier
p6
aVstaffordshire-bull-terrier
p7
aVgiant-schnauzer
p8
aVteddy-roosevelt-terrier
p9
aVshikoku
p10
aVhokkaido
p11
aVberger-picard
p12
aVjagdterrier
p13
aVamerican-water-spaniel
p14
aVazawakh
p15
aVchihuahua
p16
aVweimaraner
p17
aVdoberman-pinscher
p18
aVenglish-toy-spaniel
p19
aVcairn-terrier
p20
aVminiature-american-shepherd
p21
aVhovawart
p22
aVbasenji
p23
aVbeagle
p24
aVportuguese-sheepdog
p25
aVaustralian-kelpie
p26
aVpudelpointer
p27
aVbearded-collie
p28
aVbeauceron
p29
aVfield-spaniel
p30
aVslovensky-kopov
p31
aVbelgian-laekenois
p32
aVcardigan-welsh-corgi
p33
aVpyrenean-shepherd
p34
aVbergamasco-sheepdog
p35
aVbrussels-griffon
p36
aVirish-wolfhound
p37
aVpyrenean-mastiff
p38
aVsealyham-terrier
p39
aVlabrador-retriever
p40
aVamerican-eskimo-dog
p41
aVbluetick-coonhound
p42
aVtibetan-terrier
p43
aVblack-and-tan-coonhound
p44
aVskye-terrier
p45
aVnorrbottenspets
p46
aVsoft-coated-wheaten-terrier
p47
aVnorfolk-terrier
p48
aVchesapeake-bay-retriever
p49
aVchinese-shar-pei
p50
aVborder-collie
p51
aVcatahoula-leopard-dog
p52
aVcirneco-delletna
p53
aVgerman-wirehaired-pointer
p54
aVborzoi
p55
aVportuguese-pointer
p56
aVkai-ken
p57
aVflat-coated-retriever
p58
aVkeeshond
p59
aVsloughi
p60
aVbiewer-terrier
p61
aVharrier
p62
aVirish-setter
p63
aVrussell-terrier
p64
aVperro-de-presa-canario
p65
aVbull-terrier
p66
aVczechoslovakian-vlcak
p67
aVsilky-terrier
p68
aVpekingese
p69
aVcaucasian-shepherd-dog
p70
aVtransylvanian-hound
p71
aVst-bernard
p72
aVbasset-fauve-de-bretagne
p73
aValaskan-malamute
p74
aVchinese-crested
p75
aVredbone-coonhound
p76
aVold-english-sheepdog
p77
aVscottish-deerhound
p78
aVbriard
p79
aVdeutscher-wachtelhund
p80
aVanatolian-shepherd-dog
p81
aVjindo
p82
aVwest-highland-white-terrier
p83
aVswedish-vallhund
p84
aVicelandic-sheepdog
p85
aVpumi
p86
aVwhippet
p87
aVsaluki
p88
aVdogo-argentino
p89
aVcocker-spaniel
p90
aVstandard-schnauzer
p91
aVnova-scotia-duck-tolling-retriever
p92
aVkuvasz
p93
aVdrever
p94
aVkarelian-bear-dog
p95
aVcarolina-dog
p96
aVpharaoh-hound
p97
aVgerman-shepherd-dog
p98
aVlagotto-romagnolo
p99
aVdogue-de-bordeaux
p100
aVwelsh-springer-spaniel
p101
aVschipperke
p102
aVirish-red-and-white-setter
p103
aVpomeranian
p104
aVamerican-staffordshire-terrier
p105
aVpetit-basset-griffon-vendeen
p106
aVpug
p107
aVgerman-pinscher
p108
aVcanaan-dog
p109
aVpapillon
p110
aVappenzeller-sennenhunde
p111
aVrhodesian-ridgeback
p112
aVworking-kelpie
p113
aVdalmatian
p114
aVhavanese
p115
aVshih-tzu
p116
aVportuguese-podengo
p117
aVfrench-bulldog
p118
aVbloodhound
p119
aVmastiff
p120
aVamerican-foxhound
p121
aVgreat-dane
p122
aVbrittany
p123
aVboxer
p124
aVdandie-dinmont-terrier
p125
aVaffenpinscher
p126
aVthai-ridgeback
p127
aVrafeiro-do-alentejo
p128
aVmudi
p129
aVmountain-cur
p130
aVwire-fox-terrier
p131
aVxoloitzcuintli
p132
aVrat-terrier
p133
aVwirehaired-vizsla
p134
aVspanish-mastiff
p135
aVbraque-francais-pyrenean
p136
aVirish-water-spaniel
p137
aVrussian-tsvetnaya-bolonka
p138
aVafghan-hound
p139
aVclumber-spaniel
p140
aVboston-terrier
p141
aVboerboel
p142
aVneapolitan-mastiff
p143
aVswedish-lapphund
p144
aVdanish-swedish-farmdog
p145
aVdachshund
p146
aVpembroke-welsh-corgi
p147
aVcesky-terrier
p148
aVnorwegian-elkhound
p149
aVportuguese-water-dog
p150
aVtaiwan-dog
p151
aVwirehaired-pointing-griffon
p152
aVpoodle
p153
aVbedlington-terrier
p154
aVnorwegian-buhund
p155
aVportuguese-podengo-pequeno
p156
aVblack-russian-terrier
p157
aVshiba-inu
p158
aVgordon-setter
p159
aVrussian-toy
p160
aVcurly-coated-retriever
p161
aVspanish-water-dog
p162
aVbulldog
p163
aVbavarian-mountain-scent-hound
p164
aVbasset-hound
p165
aVboykin-spaniel
p166
aVglen-of-imaal-terrier
p167
aVminiature-bull-terrier
p168
aVcane-corso
p169
aVbracco-italiano
p170
aVfinnish-lapphund
p171
aVestrela-mountain-dog
p172
aVcavalier-king-charles-spaniel
p173
aVgreat-pyrenees
p174
aVbraque-du-bourbonnais
p175
aVhanoverian-scenthound
p176
aVyorkshire-terrier
p177
aVpuli
p178
aVporcelaine
p179
aVcentral-asian-shepherd-dog
p180
aVsussex-spaniel
p181
aVminiature-schnauzer
p182
aVlakeland-terrier
p183
aVsmooth-fox-terrier
p184
aVlapponian-herder
p185
aVgrand-basset-griffon-vendeen
p186
aVmanchester-terrier
p187
aVchinook
p188
aVsmall-munsterlander-pointer
p189
aVbelgian-sheepdog
p190
aVnewfoundland
p191
aVfinnish-spitz
p192
aVshetland-sheepdog
p193
aVnorwich-terrier
p194
aVbolognese
p195
aVgreyhound
p196
aVchow-chow
p197
aVairedale-terrier
p198
aVtornjak
p199
aVakita
p200
aVgreater-swiss-mountain-dog
p201
aVitalian-greyhound
p202
aVkerry-blue-terrier
p203
aVkishu-ken
p204
aVtosa
p205
aVentlebucher-mountain-dog
p206
aVpointer
p207
aVlowchen
p208
aVyakutian-laika
p209
aVcollie
p210
aVleonberger
p211
aVaustralian-shepherd
p212
aVnorwegian-lundehund
p213
aVkromfohrlander
p214
aVtibetan-mastiff
p215
aVbernese-mountain-dog
p216
aVamerican-hairless-terrier
p217
aVenglish-springer-spaniel
p218
aVdrentsche-patrijshond
p219
aVgolden-retriever
p220
aVgerman-shorthaired-pointer
p221
aVjapanese-chin
p222
aVvizsla
p223
aVotterhound
p224
aVparson-russell-terrier
p225
aVbouvier-des-flandres
p226
aVplott
p227
aVlhasa-apso
p228
aVperuvian-inca-orchid
p229
aVslovensky-cuvac
p230
aVbroholmer
p231
aVamerican-english-coonhound
p232
aVborder-terrier
p233
aVtoy-fox-terrier
p234
aVaustralian-cattle-dog
p235
aVstabyhoun
p236
aVbullmastiff
p237
aVtreeing-tennessee-brindle
p238
aVbarbet
p239
aVbichon-frise
p240
aVibizan-hound
p241
aVlancashire-heeler
p242
aVcoton-de-tulear
p243
aVgerman-longhaired-pointer
p244
aVmaltese
p245
aVdutch-shepherd
p246
aVgerman-spitz
p247
aVenglish-cocker-spaniel
p248
aVpolish-lowland-sheepdog
p249
aVenglish-foxhound
p250
aVscottish-terrier
p251
aVfrench-spaniel
p252
aVbelgian-malinois
p253
aVschapendoes
p254
aVeurasier
p255
aVaustralian-terrier
p256
aVhamiltonstovare
p257
aVkomondor
p258
aVsiberian-husky
p259
aVtreeing-walker-coonhound
p260
aVenglish-setter
p261
aVsamoyed
p262
aVbelgian-tervuren
p263
aVtibetan-spaniel
p264
aVirish-terrier
p265
a.