(dp0
S'exclude'
p1
(lp2
S'cairn'
p3
aS'redbone'
p4
aS'pekinese'
p5
aS'malinois'
p6
aS'brabancon'
p7
aS'schipperke'
p8
aS'beagle'
p9
aS'chihuahua'
p10
aS'hound'
p11
aS'lhasa'
p12
asS'liked'
p13
c__builtin__
set
p14
((lp15
Vpekinese
p16
atp17
Rp18
sS'disliked'
p19
g14
((lp20
g3
ag4
atp21
Rp22
s.